target datalayout = "e-m:e-p270:32:32-p271:32:32-p272:64:64-i64:64-i128:128-f80:128-n8:16:32:64-S128"
target triple = "x86_64-pc-linux-gnu"

%"class.boost::detail::shared_count" = type { ptr }
%"class.std::__cxx11::basic_string" = type { %"struct.std::__cxx11::basic_string<char>::_Alloc_hider", i64, %union.anon }
%"struct.std::__cxx11::basic_string<char>::_Alloc_hider" = type { ptr }
%union.anon = type { i64, [8 x i8] }
%"class.boost::filesystem::path" = type { %"class.std::__cxx11::basic_string" }
%"class.std::basic_ostream.base" = type { ptr }
%"class.std::basic_streambuf" = type { ptr, ptr, ptr, ptr, ptr, ptr, ptr, %"class.std::locale" }
%"class.std::locale" = type { ptr }
%"class.std::basic_ios" = type { %"class.std::ios_base", ptr, i8, i8, ptr, ptr, ptr, ptr }
%"class.std::ios_base" = type { ptr, i64, i64, i32, i32, i32, ptr, %"struct.std::ios_base::_Words", [8 x %"struct.std::ios_base::_Words"], i32, ptr, %"class.std::locale" }
%"struct.std::ios_base::_Words" = type { ptr, i64 }
%"class.boost::log::v2_mt_posix::aux::light_function" = type { ptr }
%union.pthread_mutex_t = type { %struct.__pthread_mutex_s }
%struct.__pthread_mutex_s = type { i32, i32, i32, i32, i32, i16, i16, %struct.__pthread_internal_list }
%struct.__pthread_internal_list = type { ptr, ptr }
%"class.boost::shared_ptr.131" = type { ptr, %"class.boost::detail::shared_count" }
%"class.boost::log::v2_mt_posix::aux::light_function.154" = type { ptr }
%"class.boost::log::v2_mt_posix::sinks::text_file_backend" = type { ptr }
%"struct.boost::log::v2_mt_posix::sinks::text_file_backend::implementation" = type { %"class.boost::filesystem::path", %"class.boost::filesystem::path", %"class.boost::log::v2_mt_posix::aux::light_function", %"class.boost::filesystem::path", %"class.boost::filesystem::path", %"class.boost::log::v2_mt_posix::aux::light_function", i32, i32, %"class.boost::filesystem::path", %"class.boost::filesystem::basic_ofstream", i64, %"class.boost::shared_ptr.131", %"class.boost::log::v2_mt_posix::aux::light_function.153", %"class.boost::log::v2_mt_posix::aux::light_function.153", i64, %"class.boost::log::v2_mt_posix::aux::light_function.154", i32, i8, i8, i8, i8 }
%"class.boost::filesystem::basic_ofstream" = type { %"class.std::basic_ofstream.base", %"class.std::basic_ios" }
%"class.std::basic_ofstream.base" = type { %"class.std::basic_ostream.base", %"class.std::basic_filebuf" }
%"class.std::basic_filebuf" = type { %"class.std::basic_streambuf", %union.pthread_mutex_t, %"class.std::__basic_file", i32, %struct.__mbstate_t, %struct.__mbstate_t, %struct.__mbstate_t, ptr, i64, i8, i8, i8, i8, ptr, ptr, i8, ptr, ptr, i64, ptr, ptr }
%"class.std::__basic_file" = type <{ ptr, i8, [7 x i8] }>
%struct.__mbstate_t = type { i32, %union.anon.152 }
%union.anon.152 = type { i32 }
%"class.boost::log::v2_mt_posix::aux::light_function.153" = type { ptr }

; Function Attrs: inlinehint mustprogress nounwind uwtable
define linkonce_odr noundef i32 @_ZStorSt13_Ios_OpenmodeS_(i32 noundef %0, i32 noundef %1) #5 comdat {
  %3 = alloca i32, align 4
  %4 = alloca i32, align 4
  store i32 %0, ptr %3, align 4, !tbaa !139
  store i32 %1, ptr %4, align 4, !tbaa !139
  %5 = load i32, ptr %3, align 4, !tbaa !139
  %6 = load i32, ptr %4, align 4, !tbaa !139
  %7 = or i32 %5, %6
  ret i32 %7
}

; Function Attrs: inlinehint mustprogress nounwind uwtable
define linkonce_odr noundef i32 @_ZStanSt13_Ios_OpenmodeS_(i32 noundef %0, i32 noundef %1) #5 comdat {
  %3 = alloca i32, align 4
  %4 = alloca i32, align 4
  store i32 %0, ptr %3, align 4, !tbaa !139
  store i32 %1, ptr %4, align 4, !tbaa !139
  %5 = load i32, ptr %3, align 4, !tbaa !139
  %6 = load i32, ptr %4, align 4, !tbaa !139
  %7 = and i32 %5, %6
  ret i32 %7
}

; Function Attrs: inlinehint mustprogress nounwind uwtable
define linkonce_odr noundef nonnull align 4 dereferenceable(4) ptr @_ZStaNRSt13_Ios_OpenmodeS_(ptr noundef nonnull align 4 dereferenceable(4) %0, i32 noundef %1) #5 comdat {
  %3 = alloca ptr, align 8
  %4 = alloca i32, align 4
  store ptr %0, ptr %3, align 8, !tbaa !3
  store i32 %1, ptr %4, align 4, !tbaa !139
  %5 = load ptr, ptr %3, align 8, !tbaa !3
  %6 = load i32, ptr %5, align 4, !tbaa !139
  %7 = load i32, ptr %4, align 4, !tbaa !139
  %8 = call noundef i32 @_ZStanSt13_Ios_OpenmodeS_(i32 noundef %6, i32 noundef %7)
  %9 = load ptr, ptr %3, align 8, !tbaa !3
  store i32 %8, ptr %9, align 4, !tbaa !139
  ret ptr %9
}

; Function Attrs: inlinehint mustprogress nounwind uwtable
define linkonce_odr noundef i32 @_ZStcoSt13_Ios_Openmode(i32 noundef %0) #5 comdat {
  %2 = alloca i32, align 4
  store i32 %0, ptr %2, align 4, !tbaa !139
  %3 = load i32, ptr %2, align 4, !tbaa !139
  %4 = xor i32 %3, -1
  ret i32 %4
}

; Function Attrs: inlinehint mustprogress nounwind uwtable
define linkonce_odr noundef nonnull align 4 dereferenceable(4) ptr @_ZStoRRSt13_Ios_OpenmodeS_(ptr noundef nonnull align 4 dereferenceable(4) %0, i32 noundef %1) #5 comdat {
  %3 = alloca ptr, align 8
  %4 = alloca i32, align 4
  store ptr %0, ptr %3, align 8, !tbaa !3
  store i32 %1, ptr %4, align 4, !tbaa !139
  %5 = load ptr, ptr %3, align 8, !tbaa !3
  %6 = load i32, ptr %5, align 4, !tbaa !139
  %7 = load i32, ptr %4, align 4, !tbaa !139
  %8 = call noundef i32 @_ZStorSt13_Ios_OpenmodeS_(i32 noundef %6, i32 noundef %7)
  %9 = load ptr, ptr %3, align 8, !tbaa !3
  store i32 %8, ptr %9, align 4, !tbaa !139
  ret ptr %9
}

; Function Attrs: mustprogress uwtable
define void @_ZN5boost3log11v2_mt_posix5sinks17text_file_backend13set_open_modeESt13_Ios_Openmode(ptr noundef nonnull align 8 dereferenceable(8) %0, i32 noundef %1) #4 align 2 {
  %3 = alloca ptr, align 8
  %4 = alloca i32, align 4
  store ptr %0, ptr %3, align 8, !tbaa !3
  store i32 %1, ptr %4, align 4, !tbaa !139
  %5 = load ptr, ptr %3, align 8
  %6 = call noundef nonnull align 4 dereferenceable(4) ptr @_ZStoRRSt13_Ios_OpenmodeS_(ptr noundef nonnull align 4 dereferenceable(4) %4, i32 noundef 16)
  %7 = call noundef i32 @_ZStcoSt13_Ios_Openmode(i32 noundef 8)
  %8 = call noundef nonnull align 4 dereferenceable(4) ptr @_ZStaNRSt13_Ios_OpenmodeS_(ptr noundef nonnull align 4 dereferenceable(4) %4, i32 noundef %7)
  %9 = load i32, ptr %4, align 4, !tbaa !139
  %10 = call noundef i32 @_ZStanSt13_Ios_OpenmodeS_(i32 noundef %9, i32 noundef 1)
  %11 = icmp ne i32 %10, 0
  br i1 %11, label %12, label %14

12:                                               ; preds = %2
  %13 = call noundef nonnull align 4 dereferenceable(4) ptr @_ZStoRRSt13_Ios_OpenmodeS_(ptr noundef nonnull align 4 dereferenceable(4) %4, i32 noundef 2)
  br label %16

14:                                               ; preds = %2
  %15 = call noundef nonnull align 4 dereferenceable(4) ptr @_ZStoRRSt13_Ios_OpenmodeS_(ptr noundef nonnull align 4 dereferenceable(4) %4, i32 noundef 32)
  br label %16

16:                                               ; preds = %14, %12
  %17 = load i32, ptr %4, align 4, !tbaa !139
  %18 = getelementptr inbounds nuw %"class.boost::log::v2_mt_posix::sinks::text_file_backend", ptr %5, i32 0, i32 0
  %19 = load ptr, ptr %18, align 8, !tbaa !142
  %20 = getelementptr inbounds nuw %"struct.boost::log::v2_mt_posix::sinks::text_file_backend::implementation", ptr %19, i32 0, i32 7
  store i32 %17, ptr %20, align 4, !tbaa !156
  ret void
}