; Function Attrs: mustprogress nofree norecurse nosync nounwind willreturn memory(write, argmem: readwrite, inaccessiblemem: none) uwtable
define void @_ZN5boost3log11v2_mt_posix5sinks17text_file_backend13set_open_modeESt13_Ios_Openmode(ptr nocapture noundef nonnull readonly align 8 dereferenceable(8) %0, i32 noundef %1) local_unnamed_addr #15 align 2 {
  %3 = and i32 %1, -25
  %4 = and i32 %1, 1
  %.not = icmp eq i32 %4, 0
  %.0.v = select i1 %.not, i32 48, i32 18
  %.0 = or i32 %.0.v, %3
  %5 = load ptr, ptr %0, align 8, !tbaa !225
  %6 = getelementptr inbounds nuw i8, ptr %5, i64 148
  store i32 %.0, ptr %6, align 4, !tbaa !250
  ret void
}